target datalayout = "e-m:e-p270:32:32-p271:32:32-p272:64:64-i64:64-i128:128-f80:128-n8:16:32:64-S128"
target triple = "x86_64-pc-linux-gnu"

; Function Attrs: mustprogress uwtable
define hidden void @_ZN4cvc58internal5proof11LfscPrinter9printPLetEPNS1_16LfscPrintChannelEPKNS0_9ProofNodeEmRKNSt7__cxx1112basic_stringIcSt11char_traitsIcESaIcEEERKNS0_10LetBindingERKSt3mapIS7_mSt4lessIS7_ESaISt4pairIKS7_mEEERSJ_INS0_12NodeTemplateILb1EEEmSK_ISU_ESaISM_IKSU_mEEE(ptr noundef nonnull align 8 dereferenceable(312) %0, ptr noundef %1, ptr noundef %2, i64 noundef %3, ptr noundef nonnull align 8 dereferenceable(32) %4, ptr noundef nonnull align 8 dereferenceable(472) %5, ptr noundef nonnull align 8 dereferenceable(48) %6, ptr noundef nonnull align 8 dereferenceable(48) %7) #4 align 2 {
  %9 = alloca ptr, align 8
  %10 = alloca ptr, align 8
  %11 = alloca ptr, align 8
  %12 = alloca i64, align 8
  %13 = alloca ptr, align 8
  %14 = alloca ptr, align 8
  %15 = alloca ptr, align 8
  %16 = alloca ptr, align 8
  store ptr %0, ptr %9, align 8, !tbaa !3
  store ptr %1, ptr %10, align 8, !tbaa !366
  store ptr %2, ptr %11, align 8, !tbaa !72
  store i64 %3, ptr %12, align 8, !tbaa !80
  store ptr %4, ptr %13, align 8, !tbaa !59
  store ptr %5, ptr %14, align 8, !tbaa !368
  store ptr %6, ptr %15, align 8, !tbaa !349
  store ptr %7, ptr %16, align 8, !tbaa !343
  %17 = load ptr, ptr %9, align 8
  %18 = load ptr, ptr %10, align 8, !tbaa !366
  %19 = load ptr, ptr %18, align 8, !tbaa !14
  %20 = getelementptr inbounds ptr, ptr %19, i64 7
  %21 = load ptr, ptr %20, align 8
  call void %21(ptr noundef nonnull align 8 dereferenceable(8) %18, i32 noundef 14)
  %22 = load ptr, ptr %10, align 8, !tbaa !366
  %23 = load ptr, ptr %22, align 8, !tbaa !14
  %24 = getelementptr inbounds ptr, ptr %23, i64 4
  %25 = load ptr, ptr %24, align 8
  call void %25(ptr noundef nonnull align 8 dereferenceable(8) %22)
  %26 = load ptr, ptr %10, align 8, !tbaa !366
  %27 = load ptr, ptr %26, align 8, !tbaa !14
  %28 = getelementptr inbounds ptr, ptr %27, i64 4
  %29 = load ptr, ptr %28, align 8
  call void %29(ptr noundef nonnull align 8 dereferenceable(8) %26)
  %30 = load ptr, ptr %10, align 8, !tbaa !366
  %31 = load ptr, ptr %30, align 8, !tbaa !14
  %32 = getelementptr inbounds ptr, ptr %31, i64 10
  %33 = load ptr, ptr %32, align 8
  call void %33(ptr noundef nonnull align 8 dereferenceable(8) %30)
  %34 = load ptr, ptr %10, align 8, !tbaa !366
  %35 = load ptr, ptr %11, align 8, !tbaa !72
  %36 = load ptr, ptr %14, align 8, !tbaa !368
  %37 = load ptr, ptr %15, align 8, !tbaa !349
  %38 = load ptr, ptr %16, align 8, !tbaa !343
  call void @_ZN4cvc58internal5proof11LfscPrinter18printProofInternalEPNS1_16LfscPrintChannelEPKNS0_9ProofNodeERKNS0_10LetBindingERKSt3mapIS7_mSt4lessIS7_ESaISt4pairIKS7_mEEERSB_INS0_12NodeTemplateILb1EEEmSC_ISM_ESaISE_IKSM_mEEE(ptr noundef nonnull align 8 dereferenceable(312) %17, ptr noundef %34, ptr noundef %35, ptr noundef nonnull align 8 dereferenceable(472) %36, ptr noundef nonnull align 8 dereferenceable(48) %37, ptr noundef nonnull align 8 dereferenceable(48) %38)
  %39 = load ptr, ptr %10, align 8, !tbaa !366
  %40 = load ptr, ptr %39, align 8, !tbaa !14
  %41 = getelementptr inbounds ptr, ptr %40, i64 7
  %42 = load ptr, ptr %41, align 8
  call void %42(ptr noundef nonnull align 8 dereferenceable(8) %39, i32 noundef 13)
  %43 = load ptr, ptr %10, align 8, !tbaa !366
  %44 = load i64, ptr %12, align 8, !tbaa !80
  %45 = load ptr, ptr %13, align 8, !tbaa !59
  %46 = load ptr, ptr %43, align 8, !tbaa !14
  %47 = getelementptr inbounds ptr, ptr %46, i64 9
  %48 = load ptr, ptr %47, align 8
  call void %48(ptr noundef nonnull align 8 dereferenceable(8) %43, i64 noundef %44, ptr noundef nonnull align 8 dereferenceable(32) %45)
  %49 = load ptr, ptr %10, align 8, !tbaa !366
  %50 = load ptr, ptr %49, align 8, !tbaa !14
  %51 = getelementptr inbounds ptr, ptr %50, i64 10
  %52 = load ptr, ptr %51, align 8
  call void %52(ptr noundef nonnull align 8 dereferenceable(8) %49)
  ret void
}