; Function Attrs: mustprogress uwtable
define hidden void @_ZN4cvc58internal5proof11LfscPrinter9printPLetEPNS1_16LfscPrintChannelEPKNS0_9ProofNodeEmRKNSt7__cxx1112basic_stringIcSt11char_traitsIcESaIcEEERKNS0_10LetBindingERKSt3mapIS7_mSt4lessIS7_ESaISt4pairIKS7_mEEERSJ_INS0_12NodeTemplateILb1EEEmSK_ISU_ESaISM_IKSU_mEEE(ptr noundef nonnull align 8 dereferenceable(312) %0, ptr noundef %1, ptr noundef %2, i64 noundef %3, ptr noundef nonnull align 8 dereferenceable(32) %4, ptr noundef nonnull align 8 dereferenceable(472) %5, ptr noundef nonnull align 8 captures(address) dereferenceable(48) %6, ptr noundef nonnull align 8 dereferenceable(48) %7) local_unnamed_addr #3 align 2 {
  %9 = load ptr, ptr %1, align 8, !tbaa !3
  %10 = getelementptr inbounds nuw i8, ptr %9, i64 56
  %11 = load ptr, ptr %10, align 8
  tail call void %11(ptr noundef nonnull align 8 dereferenceable(8) %1, i32 noundef 14)
  %12 = load ptr, ptr %1, align 8, !tbaa !3
  %13 = getelementptr inbounds nuw i8, ptr %12, i64 32
  %14 = load ptr, ptr %13, align 8
  tail call void %14(ptr noundef nonnull align 8 dereferenceable(8) %1)
  %15 = load ptr, ptr %1, align 8, !tbaa !3
  %16 = getelementptr inbounds nuw i8, ptr %15, i64 32
  %17 = load ptr, ptr %16, align 8
  tail call void %17(ptr noundef nonnull align 8 dereferenceable(8) %1)
  %18 = load ptr, ptr %1, align 8, !tbaa !3
  %19 = getelementptr inbounds nuw i8, ptr %18, i64 80
  %20 = load ptr, ptr %19, align 8
  tail call void %20(ptr noundef nonnull align 8 dereferenceable(8) %1)
  tail call void @_ZN4cvc58internal5proof11LfscPrinter18printProofInternalEPNS1_16LfscPrintChannelEPKNS0_9ProofNodeERKNS0_10LetBindingERKSt3mapIS7_mSt4lessIS7_ESaISt4pairIKS7_mEEERSB_INS0_12NodeTemplateILb1EEEmSC_ISM_ESaISE_IKSM_mEEE(ptr noundef nonnull align 8 dereferenceable(312) %0, ptr noundef nonnull %1, ptr noundef %2, ptr noundef nonnull align 8 dereferenceable(472) %5, ptr noundef nonnull align 8 dereferenceable(48) %6, ptr noundef nonnull align 8 dereferenceable(48) %7)
  %21 = load ptr, ptr %1, align 8, !tbaa !3
  %22 = getelementptr inbounds nuw i8, ptr %21, i64 56
  %23 = load ptr, ptr %22, align 8
  tail call void %23(ptr noundef nonnull align 8 dereferenceable(8) %1, i32 noundef 13)
  %24 = load ptr, ptr %1, align 8, !tbaa !3
  %25 = getelementptr inbounds nuw i8, ptr %24, i64 72
  %26 = load ptr, ptr %25, align 8
  tail call void %26(ptr noundef nonnull align 8 dereferenceable(8) %1, i64 noundef %3, ptr noundef nonnull align 8 dereferenceable(32) %4)
  %27 = load ptr, ptr %1, align 8, !tbaa !3
  %28 = getelementptr inbounds nuw i8, ptr %27, i64 80
  %29 = load ptr, ptr %28, align 8
  tail call void %29(ptr noundef nonnull align 8 dereferenceable(8) %1)
  ret void
}